; Function Attrs: mustprogress uwtable
define void @_ZN6google8protobuf8internal9ArenaImpl11CleanupListEv(ptr noundef nonnull readonly align 8 captures(none) dereferenceable(40) %0) local_unnamed_addr #6 align 2 {
  %2 = load atomic i64, ptr %0 monotonic, align 8
  %.not4 = icmp eq i64 %2, 0
  br i1 %.not4, label %._crit_edge, label %.lr.ph.preheader

.lr.ph.preheader:                                 ; preds = %1
  %.0.i.i = inttoptr i64 %2 to ptr
  br label %.lr.ph

.lr.ph:                                           ; preds = %.lr.ph.preheader, %_ZN6google8protobuf8internal11SerialArena11CleanupListEv.exit
  %.05 = phi ptr [ %25, %_ZN6google8protobuf8internal11SerialArena11CleanupListEv.exit ], [ %.0.i.i, %.lr.ph.preheader ]
  %3 = getelementptr inbounds nuw i8, ptr %.05, i64 24
  %4 = load ptr, ptr %3, align 8, !tbaa !53
  %.not.i = icmp eq ptr %4, null
  br i1 %.not.i, label %_ZN6google8protobuf8internal11SerialArena11CleanupListEv.exit, label %5

5:                                                ; preds = %.lr.ph
  %6 = getelementptr inbounds nuw i8, ptr %.05, i64 56
  %7 = load ptr, ptr %6, align 8, !tbaa !54
  %8 = getelementptr inbounds nuw i8, ptr %4, i64 16
  %9 = ptrtoint ptr %7 to i64
  %10 = ptrtoint ptr %8 to i64
  %11 = sub i64 %9, %10
  %12 = ashr exact i64 %11, 4
  br label %13

13:                                               ; preds = %22, %5
  %.014.i.i = phi ptr [ %4, %5 ], [ %15, %22 ]
  %.013.i.i = phi i64 [ %12, %5 ], [ %23, %22 ]
  %.not19.i.i = icmp eq i64 %.013.i.i, 0
  br i1 %.not19.i.i, label %._crit_edge.i.i, label %.lr.ph.i.i

._crit_edge.i.i:                                  ; preds = %.lr.ph.i.i, %13
  %14 = getelementptr inbounds nuw i8, ptr %.014.i.i, i64 8
  %15 = load ptr, ptr %14, align 8, !tbaa !55
  %16 = icmp eq ptr %15, null
  br i1 %16, label %_ZN6google8protobuf8internal11SerialArena11CleanupListEv.exit, label %22

.lr.ph.i.i:                                       ; preds = %13, %.lr.ph.i.i
  %.01220.i.i = phi i64 [ %21, %.lr.ph.i.i ], [ %.013.i.i, %13 ]
  %17 = getelementptr %"struct.google::protobuf::internal::SerialArena::CleanupNode", ptr %.014.i.i, i64 %.01220.i.i
  %18 = getelementptr inbounds nuw i8, ptr %17, i64 8
  %19 = load ptr, ptr %18, align 8, !tbaa !57
  %20 = load ptr, ptr %17, align 8, !tbaa !59
  tail call void %19(ptr noundef %20)
  %21 = add i64 %.01220.i.i, -1
  %.not.i.i = icmp eq i64 %21, 0
  br i1 %.not.i.i, label %._crit_edge.i.i, label %.lr.ph.i.i, !llvm.loop !60

22:                                               ; preds = %._crit_edge.i.i
  %23 = load i64, ptr %15, align 8, !tbaa !62
  br label %13

_ZN6google8protobuf8internal11SerialArena11CleanupListEv.exit: ; preds = %._crit_edge.i.i, %.lr.ph
  %24 = getelementptr inbounds nuw i8, ptr %.05, i64 32
  %25 = load ptr, ptr %24, align 8, !tbaa !63
  %.not = icmp eq ptr %25, null
  br i1 %.not, label %._crit_edge, label %.lr.ph, !llvm.loop !64

._crit_edge:                                      ; preds = %_ZN6google8protobuf8internal11SerialArena11CleanupListEv.exit, %1
  ret void
}